Certificate:
    Data:
        Version: 3 (0x2)
        Serial Number:
            3a:92:28:72:d0:cb:71:02:9c:6f:6b:5d:4e:92:78:69:38:28:92:a7
        Signature Algorithm: sha256WithRSAEncryption
        Issuer: CN = localhost
        Validity
            Not Before: Jun 21 07:14:34 2021 GMT
            Not After : Jul 21 07:14:34 2021 GMT
        Subject: CN = localhost
        Subject Public Key Info:
            Public Key Algorithm: rsaEncryption
                RSA Public-Key: (2048 bit)
                Modulus:
                    00:d6:0a:93:4f:79:cd:f0:6a:69:9a:ff:1a:67:cc:
                    72:f2:fd:86:52:05:6f:b4:0b:5a:87:b9:a7:d1:b2:
                    2f:eb:b0:dd:68:26:9b:98:c9:d3:74:37:da:7e:b7:
                    1d:67:19:a1:b9:1b:77:ac:5b:09:48:1c:85:4a:dc:
                    45:2a:c2:fd:b1:52:bf:08:db:1c:ab:a4:39:04:78:
                    ab:a0:a4:71:75:45:a6:1b:8b:b4:cb:b3:68:0d:0b:
                    25:c2:01:7a:b6:04:65:c3:8e:a3:21:54:d4:5f:d0:
                    f4:a0:c3:6e:9b:46:f2:11:3d:c9:ad:d5:4f:02:35:
                    7b:6a:c9:51:83:8e:3c:27:0a:5a:8d:b5:c0:54:71:
                    65:df:78:93:9d:58:bc:6d:b0:0e:92:81:33:26:69:
                    2a:b9:3f:b7:c1:5a:ec:95:09:3e:ab:4d:5a:ee:e4:
                    ae:4d:25:b7:00:27:0c:72:e9:dc:8f:5d:c9:a0:9b:
                    35:da:a1:10:96:24:f9:48:40:ee:5f:c9:a4:cc:f8:
                    77:9b:f8:5f:41:81:4d:64:29:b9:5d:83:3e:20:5f:
                    b1:37:a3:3a:56:66:cb:b4:a4:3d:ab:d1:4a:6c:29:
                    a3:80:e2:cd:b2:f4:0a:32:90:38:ae:b3:ff:f1:51:
                    86:0e:83:dc:6f:a2:d3:3c:07:cb:51:48:43:f2:64:
                    04:31
                Exponent: 65537 (0x10001)
        X509v3 extensions:
            X509v3 Subject Key Identifier: 
                42:CF:94:27:61:51:E0:A9:4D:85:AA:20:82:77:9D:F4:53:6A:79:09
            X509v3 Authority Key Identifier: 
                keyid:42:CF:94:27:61:51:E0:A9:4D:85:AA:20:82:77:9D:F4:53:6A:79:09

            X509v3 Basic Constraints: critical
                CA:TRUE
    Signature Algorithm: sha256WithRSAEncryption
         b5:6f:83:bf:6c:23:07:cc:79:19:1f:d4:e3:af:6e:5b:91:07:
         b1:8f:c6:02:da:42:df:b6:ee:e0:91:89:2b:aa:a9:03:33:14:
         0d:33:4a:93:ef:ea:f2:3d:5b:d0:ca:d3:6d:70:8d:f5:a7:db:
         af:ef:3b:76:c0:1e:10:b8:fe:c8:f1:8a:38:68:8e:fe:91:a5:
         dc:dd:96:5d:73:dc:55:75:6a:0e:c3:3d:3d:59:ff:5a:4a:6e:
         a8:ce:56:c1:bb:e3:99:be:57:b0:65:13:3a:b5:9a:bc:b0:f5:
         6b:e9:f3:7b:b1:95:58:d7:f7:f7:89:4b:41:bf:56:04:d3:da:
         7a:51:72:fc:38:d7:96:a4:51:90:96:6e:88:33:1f:bb:e9:24:
         80:58:c2:f7:8c:c8:cc:eb:4d:46:e9:45:33:1a:8f:5a:db:4d:
         84:ce:05:b6:20:a7:8a:46:3d:e8:9a:3f:92:89:38:9c:23:88:
         21:ab:45:f1:7a:d4:59:cf:c4:d0:55:68:66:b3:05:de:bb:f8:
         f3:fb:89:15:e9:fb:c6:41:f2:c7:3e:e2:4e:cf:75:f6:a3:72:
         ea:f2:f3:d0:f1:9f:1b:09:fb:09:72:fb:b3:fc:35:b2:d2:dd:
         55:62:76:5f:f2:4e:a5:58:0f:05:04:45:d0:09:ea:3f:fb:8d:
         09:ef:40:23
-----BEGIN CERTIFICATE-----
MIIDCTCCAfGgAwIBAgIUOpIoctDLcQKcb2tdTpJ4aTgokqcwDQYJKoZIhvcNAQEL
BQAwFDESMBAGA1UEAwwJbG9jYWxob3N0MB4XDTIxMDYyMTA3MTQzNFoXDTIxMDcy
MTA3MTQzNFowFDESMBAGA1UEAwwJbG9jYWxob3N0MIIBIjANBgkqhkiG9w0BAQEF
AAOCAQ8AMIIBCgKCAQEA1gqTT3nN8Gppmv8aZ8xy8v2GUgVvtAtah7mn0bIv67Dd
aCabmMnTdDfafrcdZxmhuRt3rFsJSByFStxFKsL9sVK/CNscq6Q5BHiroKRxdUWm
G4u0y7NoDQslwgF6tgRlw46jIVTUX9D0oMNum0byET3JrdVPAjV7aslRg448Jwpa
jbXAVHFl33iTnVi8bbAOkoEzJmkquT+3wVrslQk+q01a7uSuTSW3ACcMcuncj13J
oJs12qEQliT5SEDuX8mkzPh3m/hfQYFNZCm5XYM+IF+xN6M6VmbLtKQ9q9FKbCmj
gOLNsvQKMpA4rrP/8VGGDoPcb6LTPAfLUUhD8mQEMQIDAQABo1MwUTAdBgNVHQ4E
FgQUQs+UJ2FR4KlNhaoggned9FNqeQkwHwYDVR0jBBgwFoAUQs+UJ2FR4KlNhaog
gned9FNqeQkwDwYDVR0TAQH/BAUwAwEB/zANBgkqhkiG9w0BAQsFAAOCAQEAtW+D
v2wjB8x5GR/U469uW5EHsY/GAtpC37bu4JGJK6qpAzMUDTNKk+/q8j1b0MrTbXCN
9afbr+87dsAeELj+yPGKOGiO/pGl3N2WXXPcVXVqDsM9PVn/WkpuqM5Wwbvjmb5X
sGUTOrWavLD1a+nze7GVWNf394lLQb9WBNPaelFy/DjXlqRRkJZuiDMfu+kkgFjC
94zIzOtNRulFMxqPWttNhM4FtiCnikY96Jo/kok4nCOIIatF8XrUWc/E0FVoZrMF
3rv48/uJFen7xkHyxz7iTs919qNy6vLz0PGfGwn7CXL7s/w1stLdVWJ2X/JOpVgP
BQRF0AnqP/uNCe9AIw==
-----END CERTIFICATE-----
